ccopy_reg
_reconstructor
p0
(cargparse
Namespace
p1
c__builtin__
object
p2
Ntp3
Rp4
(dp5
S'nb_per_class'
p6
NsS'model_reg_lambda'
p7
F0.0
sS'dataset'
p8
S'tcga-gbm'
p9
sS'seed'
p10
I1993
sS'weight_decay'
p11
F0.0
sS'extra_cn'
p12
I4
sS'trial_number'
p13
S'1'
p14
sS'experiment_var'
p15
S'na'
p16
sS'log'
p17
S'console'
p18
sS'clinical_file'
p19
S'PANCAN_clinicalMatrix.gz'
p20
sS'tensorboard_dir'
p21
S'./experiments/'
p22
sS'extra_ucn'
p23
I0
sS'epoch'
p24
I10
sS'size_perc'
p25
I4
sS'lr'
p26
F0.001
sS'graph_path'
p27
S'/data/lisa/data/genomics/TCGA/gbm.hdf5'
p28
sS'train_ratio'
p29
F0.6
sS'momentum'
p30
F0.9
sS'use_emb'
p31
NsS'attention_layer'
p32
I0
sS'nb_examples'
p33
NsS'dropout'
p34
I00
sS'center'
p35
I00
sS'batch_size'
p36
I100
sS'pool_graph'
p37
NsS'percentile'
p38
I100
sS'use_gate'
p39
F0.0
sS'num_channel'
p40
I4
sS'add_self'
p41
I01
sS'disconnected'
p42
I0
sS'name'
p43
NsS'l1_loss_lambda'
p44
F0.0
sS'scale_free'
p45
I00
sS'num_layer'
p46
I1
sS'norm_adj'
p47
I01
sS'cuda'
p48
I00
sS'model'
p49
S'mlp'
p50
sS'nb_class'
p51
NsS'clinical_label'
p52
S'gender'
p53
sb.