(dp0
S'df'
p1
ccopy_reg
_reconstructor
p2
(cpandas.core.frame
DataFrame
p3
c__builtin__
object
p4
Ntp5
Rp6
(dp7
S'_metadata'
p8
(lp9
sS'_typ'
p10
S'dataframe'
p11
sS'_data'
p12
g2
(cpandas.core.internals
BlockManager
p13
g4
Ntp14
Rp15
((lp16
cpandas.core.indexes.base
_new_Index
p17
(cpandas.core.indexes.base
Index
p18
(dp19
S'data'
p20
cnumpy.core.multiarray
_reconstruct
p21
(cnumpy
ndarray
p22
(I0
tp23
S'b'
p24
tp25
Rp26
(I1
(I6
tp27
cnumpy
dtype
p28
(S'O8'
p29
I0
I1
tp30
Rp31
(I3
S'|'
p32
NNNI-1
I-1
I63
tp33
bI00
(lp34
S'auc'
p35
aS'gene'
p36
aS'model'
p37
aS'num_genes'
p38
aS'seed'
p39
aS'train_size'
p40
atp41
bsS'name'
p42
Nstp43
Rp44
ag17
(cpandas.core.indexes.range
RangeIndex
p45
(dp46
S'start'
p47
I0
sS'step'
p48
I1
sS'stop'
p49
I35
sg42
Nstp50
Rp51
a(lp52
g21
(g22
(I0
tp53
g24
tp54
Rp55
(I1
(I1
I35
tp56
g28
(S'f8'
p57
I0
I1
tp58
Rp59
(I3
S'<'
p60
NNNI-1
I-1
I0
tp61
bI00
S'/~L\xb6\xe7:\xe9?.\xce\xd18\xcc\xfc\xe8?\x04$\xc3\xf1\xa6\x82\xe8?\\]\xef\xd0I\x9d\xe8?\xc8<\xaf\xfd\x88"\xe9?;\x8e\xcf\rk\xd5\xe8?zA\xe94"\x99\xe9?\x82q\x00\x01\x87\'\xe9?\tE\x04L\x8f\xa2\xe9?\x1a\x90Ed.\xab\xe8?\xbelzM*0\xe9?Z\x88=\x19\x13Q\xe9?\xa8W.r\x0b\xbb\xe8?\xb3G\nv|\x81\xe9?\x89\xcd\xec<Z\xd5\xe8?\x10\x00L|\xc3\x80\xe3?\x02\xb8\x9f\xda\x13\xbb\xe6?\x0e5\xcdp\xcf\x88\xe7?\x04\x98\x0bf2\xc7\xe5?\xbaOU\x91\xd6\xbe\xe7?1\xd8\x17\xc4?1\xe9?\x1b\r:]W\xd8\xe8?|\x89\\9?\xbe\xe7?\xa2\xfdO\x85\x82\xe4\xe9?\xc8!\xabo\xb0h\xe9?\x91\rN\xc3\xaf]\xe9?C\xcf\xb7\xbbe\xc9\xe8?\xe8|\x82\xbe\x03\xec\xe8?\xd8\x88w=\xcd\x96\xe9?v\x9a\x1a<\xa4C\xe9?\x9e[\x11s\r\xc9\xe9?\xf4t\x96\xfe\x9d\x0f\xe9?L`8\xcbu_\xe9?JJ\xc4#\xa6\xdf\xe9?2y\xbc\xcf\xde\x00\xe9?'
p62
tp63
bag21
(g22
(I0
tp64
g24
tp65
Rp66
(I1
(I2
I35
tp67
g31
I00
(lp68
S'CEBPD'
p69
ag69
ag69
ag69
ag69
ag69
ag69
ag69
ag69
ag69
ag69
ag69
ag69
ag69
ag69
ag69
ag69
ag69
ag69
ag69
ag69
ag69
ag69
ag69
ag69
ag69
ag69
ag69
ag69
ag69
ag69
ag69
ag69
ag69
ag69
aS'CGN_lay3_chan64_emb32_dropout'
p70
ag70
ag70
ag70
ag70
aS'MLP_lay2_chan512_dropout'
p71
ag71
ag71
ag71
ag71
aS'MLP_lay2_chan512'
p72
ag72
ag72
ag72
ag72
aS'SLR_lambda1_l11'
p73
ag73
ag73
ag73
ag73
aS'CGN_lay20_chan32_emb32_dropout_pool'
p74
ag74
ag74
ag74
ag74
ag70
ag70
ag70
ag70
ag70
ag71
ag71
ag71
ag71
ag71
atp75
bag21
(g22
(I0
tp76
g24
tp77
Rp78
(I1
(I3
I35
tp79
g31
I00
(lp80
I50
aI50
aI50
aI50
aI50
aI50
aI50
aI50
aI50
aI50
aI50
aI50
aI50
aI50
aI50
aI50
aI50
aI50
aI50
aI50
aI50
aI50
aI50
aI50
aI50
aI100
aI100
aI100
aI100
aI100
aI100
aI100
aI100
aI100
aI100
aI0
aI1
aI2
aI3
aI4
aI0
aI1
aI2
aI3
aI4
aI0
aI1
aI2
aI3
aI4
aI0
aI1
aI2
aI3
aI4
aI0
aI1
aI2
aI3
aI4
aI0
aI1
aI2
aI3
aI4
aI0
aI1
aI2
aI3
aI4
aI50
aI50
aI50
aI50
aI50
aI50
aI50
aI50
aI50
aI50
aI50
aI50
aI50
aI50
aI50
aI50
aI50
aI50
aI50
aI50
aI50
aI50
aI50
aI50
aI50
aI50
aI50
aI50
aI50
aI50
aI50
aI50
aI50
aI50
aI50
atp81
ba(lp82
g17
(g18
(dp83
g20
g21
(g22
(I0
tp84
g24
tp85
Rp86
(I1
(I1
tp87
g31
I00
(lp88
g35
atp89
bsg42
Nstp90
Rp91
ag17
(g18
(dp92
g20
g21
(g22
(I0
tp93
g24
tp94
Rp95
(I1
(I2
tp96
g31
I00
(lp97
g36
ag37
atp98
bsg42
Nstp99
Rp100
ag17
(g18
(dp101
g20
g21
(g22
(I0
tp102
g24
tp103
Rp104
(I1
(I3
tp105
g31
I00
(lp106
g38
ag39
ag40
atp107
bsg42
Nstp108
Rp109
a(dp110
S'0.14.1'
p111
(dp112
S'axes'
p113
g16
sS'blocks'
p114
(lp115
(dp116
S'mgr_locs'
p117
c__builtin__
slice
p118
(I0
I1
I1
tp119
Rp120
sS'values'
p121
g55
sa(dp122
g117
g118
(I1
I3
I1
tp123
Rp124
sg121
g66
sa(dp125
g117
g118
(I3
I6
I1
tp126
Rp127
sg121
g78
sasstp128
bsbs.